target datalayout = "e-m:e-p270:32:32-p271:32:32-p272:64:64-i64:64-i128:128-f80:128-n8:16:32:64-S128"
target triple = "x86_64-unknown-linux-gnu"

%class.anon = type { ptr }
%class.anon.0 = type { ptr }

; Function Attrs: mustprogress nounwind uwtable
define internal noundef zeroext i1 @"_ZZN5arrow8internal14DetectIntWidthEPKllhENK3$_1clEmm"(ptr noundef nonnull align 8 dereferenceable(8) %this, i64 noundef %addend, i64 noundef %test_mask) #0 align 2 {
entry:
  %retval = alloca i1, align 1
  %this.addr = alloca ptr, align 8
  %addend.addr = alloca i64, align 8
  %test_mask.addr = alloca i64, align 8
  %v = alloca i64, align 8
  store ptr %this, ptr %this.addr, align 8
  store i64 %addend, ptr %addend.addr, align 8
  store i64 %test_mask, ptr %test_mask.addr, align 8
  %this1 = load ptr, ptr %this.addr, align 8
  %0 = getelementptr inbounds %class.anon, ptr %this1, i32 0, i32 0
  %1 = load ptr, ptr %0, align 8
  %2 = load ptr, ptr %1, align 8
  %incdec.ptr = getelementptr inbounds i64, ptr %2, i32 1
  store ptr %incdec.ptr, ptr %1, align 8
  %3 = load i64, ptr %2, align 8
  store i64 %3, ptr %v, align 8
  %4 = load i64, ptr %v, align 8
  %5 = load i64, ptr %addend.addr, align 8
  %add = add i64 %4, %5
  %6 = load i64, ptr %test_mask.addr, align 8
  %and = and i64 %add, %6
  %cmp = icmp ne i64 %and, 0
  %lnot = xor i1 %cmp, true
  %lnot2 = xor i1 %lnot, true
  br i1 %lnot2, label %if.then, label %if.else

if.then:                                          ; preds = %entry
  %7 = getelementptr inbounds %class.anon, ptr %this1, i32 0, i32 0
  %8 = load ptr, ptr %7, align 8
  %9 = load ptr, ptr %8, align 8
  %incdec.ptr3 = getelementptr inbounds i64, ptr %9, i32 -1
  store ptr %incdec.ptr3, ptr %8, align 8
  store i1 false, ptr %retval, align 1
  br label %return

if.else:                                          ; preds = %entry
  store i1 true, ptr %retval, align 1
  br label %return

return:                                           ; preds = %if.else, %if.then
  %10 = load i1, ptr %retval, align 1
  ret i1 %10
}

; Function Attrs: mustprogress nounwind uwtable
define internal noundef zeroext i1 @"_ZZN5arrow8internal14DetectIntWidthEPKllhENK3$_0clEmm"(ptr noundef nonnull align 8 dereferenceable(8) %this, i64 noundef %addend, i64 noundef %test_mask) #0 align 2 {
entry:
  %retval = alloca i1, align 1
  %this.addr = alloca ptr, align 8
  %addend.addr = alloca i64, align 8
  %test_mask.addr = alloca i64, align 8
  %mask = alloca i64, align 8
  store ptr %this, ptr %this.addr, align 8
  store i64 %addend, ptr %addend.addr, align 8
  store i64 %test_mask, ptr %test_mask.addr, align 8
  %this1 = load ptr, ptr %this.addr, align 8
  %0 = getelementptr inbounds %class.anon.0, ptr %this1, i32 0, i32 0
  %1 = load ptr, ptr %0, align 8
  %2 = load ptr, ptr %1, align 8
  %arrayidx = getelementptr inbounds i64, ptr %2, i64 0
  %3 = load i64, ptr %arrayidx, align 8
  %4 = load i64, ptr %addend.addr, align 8
  %add = add i64 %3, %4
  %5 = getelementptr inbounds %class.anon.0, ptr %this1, i32 0, i32 0
  %6 = load ptr, ptr %5, align 8
  %7 = load ptr, ptr %6, align 8
  %arrayidx2 = getelementptr inbounds i64, ptr %7, i64 1
  %8 = load i64, ptr %arrayidx2, align 8
  %9 = load i64, ptr %addend.addr, align 8
  %add3 = add i64 %8, %9
  %or = or i64 %add, %add3
  %10 = getelementptr inbounds %class.anon.0, ptr %this1, i32 0, i32 0
  %11 = load ptr, ptr %10, align 8
  %12 = load ptr, ptr %11, align 8
  %arrayidx4 = getelementptr inbounds i64, ptr %12, i64 2
  %13 = load i64, ptr %arrayidx4, align 8
  %14 = load i64, ptr %addend.addr, align 8
  %add5 = add i64 %13, %14
  %or6 = or i64 %or, %add5
  %15 = getelementptr inbounds %class.anon.0, ptr %this1, i32 0, i32 0
  %16 = load ptr, ptr %15, align 8
  %17 = load ptr, ptr %16, align 8
  %arrayidx7 = getelementptr inbounds i64, ptr %17, i64 3
  %18 = load i64, ptr %arrayidx7, align 8
  %19 = load i64, ptr %addend.addr, align 8
  %add8 = add i64 %18, %19
  %or9 = or i64 %or6, %add8
  store i64 %or9, ptr %mask, align 8
  %20 = getelementptr inbounds %class.anon.0, ptr %this1, i32 0, i32 0
  %21 = load ptr, ptr %20, align 8
  %22 = load ptr, ptr %21, align 8
  %add.ptr = getelementptr inbounds i64, ptr %22, i64 4
  store ptr %add.ptr, ptr %21, align 8
  %23 = load i64, ptr %mask, align 8
  %24 = load i64, ptr %test_mask.addr, align 8
  %and = and i64 %23, %24
  %cmp = icmp ne i64 %and, 0
  %lnot = xor i1 %cmp, true
  %lnot10 = xor i1 %lnot, true
  br i1 %lnot10, label %if.then, label %if.else

if.then:                                          ; preds = %entry
  %25 = getelementptr inbounds %class.anon.0, ptr %this1, i32 0, i32 0
  %26 = load ptr, ptr %25, align 8
  %27 = load ptr, ptr %26, align 8
  %add.ptr11 = getelementptr inbounds i64, ptr %27, i64 -4
  store ptr %add.ptr11, ptr %26, align 8
  store i1 false, ptr %retval, align 1
  br label %return

if.else:                                          ; preds = %entry
  store i1 true, ptr %retval, align 1
  br label %return

return:                                           ; preds = %if.else, %if.then
  %28 = load i1, ptr %retval, align 1
  ret i1 %28
}

; Function Attrs: mustprogress uwtable
define noundef zeroext i8 @_ZN5arrow8internal14DetectIntWidthEPKllh(ptr noundef %values, i64 noundef %length, i8 noundef zeroext %min_width) #1 {
entry:
  %retval = alloca i8, align 1
  %values.addr = alloca ptr, align 8
  %length.addr = alloca i64, align 8
  %min_width.addr = alloca i8, align 1
  %width = alloca i8, align 1
  %p = alloca ptr, align 8
  %end = alloca ptr, align 8
  %addend8 = alloca i64, align 8
  %addend16 = alloca i64, align 8
  %addend32 = alloca i64, align 8
  %test_one_item = alloca %class.anon, align 8
  %test_four_items = alloca %class.anon.0, align 8
  store ptr %values, ptr %values.addr, align 8
  store i64 %length, ptr %length.addr, align 8
  store i8 %min_width, ptr %min_width.addr, align 1
  %0 = load i8, ptr %min_width.addr, align 1
  %conv = zext i8 %0 to i32
  %cmp = icmp eq i32 %conv, 8
  br i1 %cmp, label %if.then, label %if.end

if.then:                                          ; preds = %entry
  %1 = load i8, ptr %min_width.addr, align 1
  store i8 %1, ptr %retval, align 1
  br label %return

if.end:                                           ; preds = %entry
  %2 = load i8, ptr %min_width.addr, align 1
  store i8 %2, ptr %width, align 1
  %3 = load ptr, ptr %values.addr, align 8
  store ptr %3, ptr %p, align 8
  %4 = load ptr, ptr %p, align 8
  %5 = load i64, ptr %length.addr, align 8
  %add.ptr = getelementptr inbounds i64, ptr %4, i64 %5
  store ptr %add.ptr, ptr %end, align 8
  store i64 128, ptr %addend8, align 8
  store i64 32768, ptr %addend16, align 8
  store i64 2147483648, ptr %addend32, align 8
  %6 = getelementptr inbounds %class.anon, ptr %test_one_item, i32 0, i32 0
  store ptr %p, ptr %6, align 8
  %7 = getelementptr inbounds %class.anon.0, ptr %test_four_items, i32 0, i32 0
  store ptr %p, ptr %7, align 8
  %8 = load i8, ptr %width, align 1
  %conv1 = zext i8 %8 to i32
  %cmp2 = icmp eq i32 %conv1, 1
  br i1 %cmp2, label %if.then3, label %if.end15

if.then3:                                         ; preds = %if.end
  br label %while.cond

while.cond:                                       ; preds = %if.end7, %if.then3
  %9 = load ptr, ptr %p, align 8
  %10 = load ptr, ptr %end, align 8
  %add.ptr4 = getelementptr inbounds i64, ptr %10, i64 -4
  %cmp5 = icmp ule ptr %9, %add.ptr4
  br i1 %cmp5, label %while.body, label %while.end

while.body:                                       ; preds = %while.cond
  %call = call noundef zeroext i1 @"_ZZN5arrow8internal14DetectIntWidthEPKllhENK3$_0clEmm"(ptr noundef nonnull align 8 dereferenceable(8) %test_four_items, i64 noundef 128, i64 noundef -256)
  br i1 %call, label %if.end7, label %if.then6

if.then6:                                         ; preds = %while.body
  store i8 2, ptr %width, align 1
  br label %width2

if.end7:                                          ; preds = %while.body
  br label %while.cond, !llvm.loop !137

while.end:                                        ; preds = %while.cond
  br label %while.cond8

while.cond8:                                      ; preds = %if.end13, %while.end
  %11 = load ptr, ptr %p, align 8
  %12 = load ptr, ptr %end, align 8
  %cmp9 = icmp ult ptr %11, %12
  br i1 %cmp9, label %while.body10, label %while.end14

while.body10:                                     ; preds = %while.cond8
  %call11 = call noundef zeroext i1 @"_ZZN5arrow8internal14DetectIntWidthEPKllhENK3$_1clEmm"(ptr noundef nonnull align 8 dereferenceable(8) %test_one_item, i64 noundef 128, i64 noundef -256)
  br i1 %call11, label %if.end13, label %if.then12

if.then12:                                        ; preds = %while.body10
  store i8 2, ptr %width, align 1
  br label %width2

if.end13:                                         ; preds = %while.body10
  br label %while.cond8, !llvm.loop !138

while.end14:                                      ; preds = %while.cond8
  store i8 1, ptr %retval, align 1
  br label %return

if.end15:                                         ; preds = %if.end
  br label %width2

width2:                                           ; preds = %if.end15, %if.then12, %if.then6
  %13 = load i8, ptr %width, align 1
  %conv16 = zext i8 %13 to i32
  %cmp17 = icmp eq i32 %conv16, 2
  br i1 %cmp17, label %if.then18, label %if.end34

if.then18:                                        ; preds = %width2
  br label %while.cond19

while.cond19:                                     ; preds = %if.end25, %if.then18
  %14 = load ptr, ptr %p, align 8
  %15 = load ptr, ptr %end, align 8
  %add.ptr20 = getelementptr inbounds i64, ptr %15, i64 -4
  %cmp21 = icmp ule ptr %14, %add.ptr20
  br i1 %cmp21, label %while.body22, label %while.end26

while.body22:                                     ; preds = %while.cond19
  %call23 = call noundef zeroext i1 @"_ZZN5arrow8internal14DetectIntWidthEPKllhENK3$_0clEmm"(ptr noundef nonnull align 8 dereferenceable(8) %test_four_items, i64 noundef 32768, i64 noundef -65536)
  br i1 %call23, label %if.end25, label %if.then24

if.then24:                                        ; preds = %while.body22
  store i8 4, ptr %width, align 1
  br label %width4

if.end25:                                         ; preds = %while.body22
  br label %while.cond19, !llvm.loop !139

while.end26:                                      ; preds = %while.cond19
  br label %while.cond27

while.cond27:                                     ; preds = %if.end32, %while.end26
  %16 = load ptr, ptr %p, align 8
  %17 = load ptr, ptr %end, align 8
  %cmp28 = icmp ult ptr %16, %17
  br i1 %cmp28, label %while.body29, label %while.end33

while.body29:                                     ; preds = %while.cond27
  %call30 = call noundef zeroext i1 @"_ZZN5arrow8internal14DetectIntWidthEPKllhENK3$_1clEmm"(ptr noundef nonnull align 8 dereferenceable(8) %test_one_item, i64 noundef 32768, i64 noundef -65536)
  br i1 %call30, label %if.end32, label %if.then31

if.then31:                                        ; preds = %while.body29
  store i8 4, ptr %width, align 1
  br label %width4

if.end32:                                         ; preds = %while.body29
  br label %while.cond27, !llvm.loop !140

while.end33:                                      ; preds = %while.cond27
  store i8 2, ptr %retval, align 1
  br label %return

if.end34:                                         ; preds = %width2
  br label %width4

width4:                                           ; preds = %if.end34, %if.then31, %if.then24
  %18 = load i8, ptr %width, align 1
  %conv35 = zext i8 %18 to i32
  %cmp36 = icmp eq i32 %conv35, 4
  br i1 %cmp36, label %if.then37, label %if.end53

if.then37:                                        ; preds = %width4
  br label %while.cond38

while.cond38:                                     ; preds = %if.end44, %if.then37
  %19 = load ptr, ptr %p, align 8
  %20 = load ptr, ptr %end, align 8
  %add.ptr39 = getelementptr inbounds i64, ptr %20, i64 -4
  %cmp40 = icmp ule ptr %19, %add.ptr39
  br i1 %cmp40, label %while.body41, label %while.end45

while.body41:                                     ; preds = %while.cond38
  %call42 = call noundef zeroext i1 @"_ZZN5arrow8internal14DetectIntWidthEPKllhENK3$_0clEmm"(ptr noundef nonnull align 8 dereferenceable(8) %test_four_items, i64 noundef 2147483648, i64 noundef -4294967296)
  br i1 %call42, label %if.end44, label %if.then43

if.then43:                                        ; preds = %while.body41
  store i8 8, ptr %width, align 1
  br label %width8

if.end44:                                         ; preds = %while.body41
  br label %while.cond38, !llvm.loop !141

while.end45:                                      ; preds = %while.cond38
  br label %while.cond46

while.cond46:                                     ; preds = %if.end51, %while.end45
  %21 = load ptr, ptr %p, align 8
  %22 = load ptr, ptr %end, align 8
  %cmp47 = icmp ult ptr %21, %22
  br i1 %cmp47, label %while.body48, label %while.end52

while.body48:                                     ; preds = %while.cond46
  %call49 = call noundef zeroext i1 @"_ZZN5arrow8internal14DetectIntWidthEPKllhENK3$_1clEmm"(ptr noundef nonnull align 8 dereferenceable(8) %test_one_item, i64 noundef 2147483648, i64 noundef -4294967296)
  br i1 %call49, label %if.end51, label %if.then50

if.then50:                                        ; preds = %while.body48
  store i8 8, ptr %width, align 1
  br label %width8

if.end51:                                         ; preds = %while.body48
  br label %while.cond46, !llvm.loop !142

while.end52:                                      ; preds = %while.cond46
  store i8 4, ptr %retval, align 1
  br label %return

if.end53:                                         ; preds = %width4
  br label %width8

width8:                                           ; preds = %if.end53, %if.then50, %if.then43
  store i8 8, ptr %retval, align 1
  br label %return

return:                                           ; preds = %width8, %while.end52, %while.end33, %while.end14, %if.then
  %23 = load i8, ptr %retval, align 1
  ret i8 %23
}