; Function Attrs: mustprogress nofree norecurse nosync nounwind willreturn memory(read, inaccessiblemem: none) uwtable
define noundef zeroext i8 @_ZN5arrow8internal14DetectIntWidthEPKllh(ptr noundef readonly %values, i64 noundef %length, i8 noundef zeroext %min_width) local_unnamed_addr #1 {
entry:
  %cmp = icmp eq i8 %min_width, 8
  br i1 %cmp, label %return, label %if.end

if.end:                                           ; preds = %entry
  %add.ptr = getelementptr inbounds i64, ptr %values, i64 %length
  switch i8 %min_width, label %return [
    i8 1, label %while.cond.preheader
    i8 2, label %while.cond19.preheader
    i8 4, label %while.cond38.preheader
  ]

while.cond.preheader:                             ; preds = %if.end
  %add.ptr4 = getelementptr inbounds i8, ptr %add.ptr, i64 -32
  br label %while.cond

while.cond:                                       ; preds = %while.cond.preheader, %while.body
  %p.0 = phi ptr [ %add.ptr.i, %while.body ], [ %values, %while.cond.preheader ]
  %cmp5.not = icmp ugt ptr %p.0, %add.ptr4
  br i1 %cmp5.not, label %while.cond8, label %while.body

while.body:                                       ; preds = %while.cond
  %0 = load <4 x i64>, ptr %p.0, align 8
  %1 = add <4 x i64> %0, <i64 128, i64 128, i64 128, i64 128>
  %2 = tail call i64 @llvm.vector.reduce.or.v4i64(<4 x i64> %1)
  %add.ptr.i = getelementptr inbounds i8, ptr %p.0, i64 32
  %cmp.not.i = icmp ult i64 %2, 256
  br i1 %cmp.not.i, label %while.cond, label %while.cond19.preheader, !llvm.loop !137

while.cond8:                                      ; preds = %while.cond, %while.body10
  %p.2 = phi ptr [ %incdec.ptr.i, %while.body10 ], [ %p.0, %while.cond ]
  %cmp9 = icmp ult ptr %p.2, %add.ptr
  br i1 %cmp9, label %while.body10, label %return

while.body10:                                     ; preds = %while.cond8
  %incdec.ptr.i = getelementptr inbounds i8, ptr %p.2, i64 8
  %3 = load i64, ptr %p.2, align 8
  %add.i10 = add i64 %3, 128
  %cmp.not.i12 = icmp ult i64 %add.i10, 256
  br i1 %cmp.not.i12, label %while.cond8, label %while.cond19.preheader, !llvm.loop !138

while.cond19.preheader:                           ; preds = %while.body, %while.body10, %if.end
  %p.4116 = phi ptr [ %values, %if.end ], [ %p.2, %while.body10 ], [ %p.0, %while.body ]
  %add.ptr20 = getelementptr inbounds i8, ptr %add.ptr, i64 -32
  br label %while.cond19

while.cond19:                                     ; preds = %while.cond19.preheader, %while.body22
  %p.5 = phi ptr [ %add.ptr.i24, %while.body22 ], [ %p.4116, %while.cond19.preheader ]
  %cmp21.not = icmp ugt ptr %p.5, %add.ptr20
  br i1 %cmp21.not, label %while.cond27, label %while.body22

while.body22:                                     ; preds = %while.cond19
  %4 = load <4 x i64>, ptr %p.5, align 8
  %5 = add <4 x i64> %4, <i64 32768, i64 32768, i64 32768, i64 32768>
  %6 = tail call i64 @llvm.vector.reduce.or.v4i64(<4 x i64> %5)
  %add.ptr.i24 = getelementptr inbounds i8, ptr %p.5, i64 32
  %cmp.not.i26 = icmp ult i64 %6, 65536
  br i1 %cmp.not.i26, label %while.cond19, label %while.cond38.preheader, !llvm.loop !139

while.cond27:                                     ; preds = %while.cond19, %while.body29
  %p.7 = phi ptr [ %incdec.ptr.i30, %while.body29 ], [ %p.5, %while.cond19 ]
  %cmp28 = icmp ult ptr %p.7, %add.ptr
  br i1 %cmp28, label %while.body29, label %return

while.body29:                                     ; preds = %while.cond27
  %incdec.ptr.i30 = getelementptr inbounds i8, ptr %p.7, i64 8
  %7 = load i64, ptr %p.7, align 8
  %add.i31 = add i64 %7, 32768
  %cmp.not.i33 = icmp ult i64 %add.i31, 65536
  br i1 %cmp.not.i33, label %while.cond27, label %while.cond38.preheader, !llvm.loop !140

while.cond38.preheader:                           ; preds = %while.body22, %while.body29, %if.end
  %p.9120 = phi ptr [ %values, %if.end ], [ %p.7, %while.body29 ], [ %p.5, %while.body22 ]
  %add.ptr39 = getelementptr inbounds i8, ptr %add.ptr, i64 -32
  br label %while.cond38

while.cond38:                                     ; preds = %while.cond38.preheader, %while.body41
  %p.10 = phi ptr [ %add.ptr.i47, %while.body41 ], [ %p.9120, %while.cond38.preheader ]
  %cmp40.not = icmp ugt ptr %p.10, %add.ptr39
  br i1 %cmp40.not, label %while.cond46, label %while.body41

while.body41:                                     ; preds = %while.cond38
  %8 = load <4 x i64>, ptr %p.10, align 8
  %9 = add <4 x i64> %8, <i64 2147483648, i64 2147483648, i64 2147483648, i64 2147483648>
  %10 = tail call i64 @llvm.vector.reduce.or.v4i64(<4 x i64> %9)
  %add.ptr.i47 = getelementptr inbounds i8, ptr %p.10, i64 32
  %cmp.not.i49 = icmp ult i64 %10, 4294967296
  br i1 %cmp.not.i49, label %while.cond38, label %return, !llvm.loop !141

while.cond46:                                     ; preds = %while.cond38, %while.body48
  %p.12 = phi ptr [ %incdec.ptr.i53, %while.body48 ], [ %p.10, %while.cond38 ]
  %cmp47 = icmp ult ptr %p.12, %add.ptr
  br i1 %cmp47, label %while.body48, label %return

while.body48:                                     ; preds = %while.cond46
  %incdec.ptr.i53 = getelementptr inbounds i8, ptr %p.12, i64 8
  %11 = load i64, ptr %p.12, align 8
  %add.i54 = add i64 %11, 2147483648
  %cmp.not.i56 = icmp ult i64 %add.i54, 4294967296
  br i1 %cmp.not.i56, label %while.cond46, label %return, !llvm.loop !142

return:                                           ; preds = %while.cond8, %while.cond27, %while.body41, %while.body48, %while.cond46, %if.end, %entry
  %retval.0 = phi i8 [ 8, %entry ], [ 8, %if.end ], [ 8, %while.body48 ], [ 4, %while.cond46 ], [ 8, %while.body41 ], [ 2, %while.cond27 ], [ 1, %while.cond8 ]
  ret i8 %retval.0
}